target datalayout = "e-m:e-p270:32:32-p271:32:32-p272:64:64-i64:64-i128:128-f80:128-n8:16:32:64-S128"
target triple = "x86_64-pc-linux-gnu"

@ZSTD_overlapCopy8.dec32table = internal constant [8 x i32] [i32 0, i32 1, i32 2, i32 1, i32 4, i32 4, i32 4, i32 4], align 16
@ZSTD_overlapCopy8.dec64table = internal constant [8 x i32] [i32 8, i32 8, i32 8, i32 7, i32 8, i32 9, i32 10, i32 11], align 16

; Function Attrs: nounwind uwtable
define internal void @ZSTD_copy16(ptr noundef %0, ptr noundef %1) #6 {
  %3 = alloca ptr, align 8
  %4 = alloca ptr, align 8
  %5 = alloca <2 x i64>, align 16
  %6 = alloca ptr, align 8
  %7 = alloca ptr, align 8
  store ptr %0, ptr %6, align 8
  store ptr %1, ptr %7, align 8
  %8 = load ptr, ptr %6, align 8
  %9 = load ptr, ptr %7, align 8
  store ptr %9, ptr %3, align 8
  %10 = load ptr, ptr %3, align 8
  %11 = load <2 x i64>, ptr %10, align 1
  store ptr %8, ptr %4, align 8
  store <2 x i64> %11, ptr %5, align 16
  %12 = load <2 x i64>, ptr %5, align 16
  %13 = load ptr, ptr %4, align 8
  store <2 x i64> %12, ptr %13, align 1
  ret void
}

; Function Attrs: nounwind uwtable
define internal void @ZSTD_copy8(ptr noundef %0, ptr noundef %1) #0 {
  %3 = alloca ptr, align 8
  %4 = alloca ptr, align 8
  store ptr %0, ptr %3, align 8
  store ptr %1, ptr %4, align 8
  %5 = load ptr, ptr %3, align 8
  %6 = load ptr, ptr %4, align 8
  call void @llvm.memcpy.p0.p0.i64(ptr align 1 %5, ptr align 1 %6, i64 8, i1 false)
  ret void
}

; Function Attrs: nounwind uwtable
define internal void @ZSTD_copy4(ptr noundef %0, ptr noundef %1) #0 {
  %3 = alloca ptr, align 8
  %4 = alloca ptr, align 8
  store ptr %0, ptr %3, align 8
  store ptr %1, ptr %4, align 8
  %5 = load ptr, ptr %3, align 8
  %6 = load ptr, ptr %4, align 8
  call void @llvm.memcpy.p0.p0.i64(ptr align 1 %5, ptr align 1 %6, i64 4, i1 false)
  ret void
}

; Function Attrs: nounwind uwtable
define internal void @ZSTD_safecopy(ptr noundef %0, ptr noundef %1, ptr noundef %2, i64 noundef %3, i32 noundef %4) #0 {
  %6 = alloca ptr, align 8
  %7 = alloca ptr, align 8
  %8 = alloca i64, align 8
  %9 = alloca i32, align 4
  %10 = alloca ptr, align 8
  %11 = alloca ptr, align 8
  %12 = alloca i64, align 8
  %13 = alloca i32, align 4
  %14 = alloca i64, align 8
  %15 = alloca ptr, align 8
  %16 = alloca ptr, align 8
  %17 = alloca ptr, align 8
  %18 = alloca ptr, align 8
  %19 = alloca ptr, align 8
  %20 = alloca i64, align 8
  %21 = alloca i32, align 4
  %22 = alloca i64, align 8
  %23 = alloca ptr, align 8
  %24 = alloca ptr, align 8
  %25 = alloca ptr, align 8
  %26 = alloca ptr, align 8
  %27 = alloca ptr, align 8
  %28 = alloca ptr, align 8
  %29 = alloca i64, align 8
  %30 = alloca i32, align 4
  %31 = alloca i64, align 8
  %32 = alloca ptr, align 8
  store ptr %0, ptr %26, align 8
  store ptr %1, ptr %27, align 8
  store ptr %2, ptr %28, align 8
  store i64 %3, ptr %29, align 8
  store i32 %4, ptr %30, align 4
  %33 = load ptr, ptr %26, align 8
  %34 = load ptr, ptr %28, align 8
  %35 = ptrtoint ptr %33 to i64
  %36 = ptrtoint ptr %34 to i64
  %37 = sub i64 %35, %36
  store i64 %37, ptr %31, align 8
  %38 = load ptr, ptr %26, align 8
  %39 = load i64, ptr %29, align 8
  %40 = getelementptr inbounds i8, ptr %38, i64 %39
  store ptr %40, ptr %32, align 8
  %41 = load i64, ptr %29, align 8
  %42 = icmp slt i64 %41, 8
  br i1 %42, label %43, label %55

43:                                               ; preds = %5
  br label %44

44:                                               ; preds = %48, %43
  %45 = load ptr, ptr %26, align 8
  %46 = load ptr, ptr %32, align 8
  %47 = icmp ult ptr %45, %46
  br i1 %47, label %48, label %54

48:                                               ; preds = %44
  %49 = load ptr, ptr %28, align 8
  %50 = getelementptr inbounds i8, ptr %49, i32 1
  store ptr %50, ptr %28, align 8
  %51 = load i8, ptr %49, align 1
  %52 = load ptr, ptr %26, align 8
  %53 = getelementptr inbounds i8, ptr %52, i32 1
  store ptr %53, ptr %26, align 8
  store i8 %51, ptr %52, align 1
  br label %44, !llvm.loop !33

54:                                               ; preds = %44
  br label %283

55:                                               ; preds = %5
  %56 = load i32, ptr %30, align 4
  %57 = icmp eq i32 %56, 1
  br i1 %57, label %58, label %124

58:                                               ; preds = %55
  %59 = load i64, ptr %31, align 8
  store ptr %26, ptr %6, align 8
  store ptr %28, ptr %7, align 8
  store i64 %59, ptr %8, align 8
  %60 = load i64, ptr %8, align 8
  %61 = icmp ult i64 %60, 8
  br i1 %61, label %62, label %110

62:                                               ; preds = %58
  %63 = load i64, ptr %8, align 8
  %64 = getelementptr inbounds [8 x i32], ptr @ZSTD_overlapCopy8.dec64table, i64 0, i64 %63
  %65 = load i32, ptr %64, align 4
  store i32 %65, ptr %9, align 4
  %66 = load ptr, ptr %7, align 8
  %67 = load ptr, ptr %66, align 8
  %68 = load i8, ptr %67, align 1
  %69 = load ptr, ptr %6, align 8
  %70 = load ptr, ptr %69, align 8
  store i8 %68, ptr %70, align 1
  %71 = load ptr, ptr %7, align 8
  %72 = load ptr, ptr %71, align 8
  %73 = getelementptr inbounds i8, ptr %72, i64 1
  %74 = load i8, ptr %73, align 1
  %75 = load ptr, ptr %6, align 8
  %76 = load ptr, ptr %75, align 8
  %77 = getelementptr inbounds i8, ptr %76, i64 1
  store i8 %74, ptr %77, align 1
  %78 = load ptr, ptr %7, align 8
  %79 = load ptr, ptr %78, align 8
  %80 = getelementptr inbounds i8, ptr %79, i64 2
  %81 = load i8, ptr %80, align 1
  %82 = load ptr, ptr %6, align 8
  %83 = load ptr, ptr %82, align 8
  %84 = getelementptr inbounds i8, ptr %83, i64 2
  store i8 %81, ptr %84, align 1
  %85 = load ptr, ptr %7, align 8
  %86 = load ptr, ptr %85, align 8
  %87 = getelementptr inbounds i8, ptr %86, i64 3
  %88 = load i8, ptr %87, align 1
  %89 = load ptr, ptr %6, align 8
  %90 = load ptr, ptr %89, align 8
  %91 = getelementptr inbounds i8, ptr %90, i64 3
  store i8 %88, ptr %91, align 1
  %92 = load i64, ptr %8, align 8
  %93 = getelementptr inbounds [8 x i32], ptr @ZSTD_overlapCopy8.dec32table, i64 0, i64 %92
  %94 = load i32, ptr %93, align 4
  %95 = load ptr, ptr %7, align 8
  %96 = load ptr, ptr %95, align 8
  %97 = zext i32 %94 to i64
  %98 = getelementptr inbounds i8, ptr %96, i64 %97
  store ptr %98, ptr %95, align 8
  %99 = load ptr, ptr %6, align 8
  %100 = load ptr, ptr %99, align 8
  %101 = getelementptr inbounds i8, ptr %100, i64 4
  %102 = load ptr, ptr %7, align 8
  %103 = load ptr, ptr %102, align 8
  call void @ZSTD_copy4(ptr noundef %101, ptr noundef %103)
  %104 = load i32, ptr %9, align 4
  %105 = load ptr, ptr %7, align 8
  %106 = load ptr, ptr %105, align 8
  %107 = sext i32 %104 to i64
  %108 = sub i64 0, %107
  %109 = getelementptr inbounds i8, ptr %106, i64 %108
  store ptr %109, ptr %105, align 8
  br label %115

110:                                              ; preds = %58
  %111 = load ptr, ptr %6, align 8
  %112 = load ptr, ptr %111, align 8
  %113 = load ptr, ptr %7, align 8
  %114 = load ptr, ptr %113, align 8
  call void @ZSTD_copy8(ptr noundef %112, ptr noundef %114)
  br label %115

115:                                              ; preds = %110, %62
  %116 = load ptr, ptr %7, align 8
  %117 = load ptr, ptr %116, align 8
  %118 = getelementptr inbounds i8, ptr %117, i64 8
  store ptr %118, ptr %116, align 8
  %119 = load ptr, ptr %6, align 8
  %120 = load ptr, ptr %119, align 8
  %121 = getelementptr inbounds i8, ptr %120, i64 8
  store ptr %121, ptr %119, align 8
  %122 = load i64, ptr %29, align 8
  %123 = sub nsw i64 %122, 8
  store i64 %123, ptr %29, align 8
  br label %124

124:                                              ; preds = %115, %55
  %125 = load ptr, ptr %32, align 8
  %126 = load ptr, ptr %27, align 8
  %127 = icmp ule ptr %125, %126
  br i1 %127, label %128, label %189

128:                                              ; preds = %124
  %129 = load ptr, ptr %26, align 8
  %130 = load ptr, ptr %28, align 8
  %131 = load i64, ptr %29, align 8
  %132 = load i32, ptr %30, align 4
  store ptr %129, ptr %10, align 8
  store ptr %130, ptr %11, align 8
  store i64 %131, ptr %12, align 8
  store i32 %132, ptr %13, align 4
  %133 = load ptr, ptr %10, align 8
  %134 = load ptr, ptr %11, align 8
  %135 = ptrtoint ptr %133 to i64
  %136 = ptrtoint ptr %134 to i64
  %137 = sub i64 %135, %136
  store i64 %137, ptr %14, align 8
  %138 = load ptr, ptr %11, align 8
  store ptr %138, ptr %15, align 8
  %139 = load ptr, ptr %10, align 8
  store ptr %139, ptr %16, align 8
  %140 = load ptr, ptr %16, align 8
  %141 = load i64, ptr %12, align 8
  %142 = getelementptr inbounds i8, ptr %140, i64 %141
  store ptr %142, ptr %17, align 8
  %143 = load i32, ptr %13, align 4
  %144 = icmp eq i32 %143, 1
  br i1 %144, label %145, label %160

145:                                              ; preds = %128
  %146 = load i64, ptr %14, align 8
  %147 = icmp slt i64 %146, 16
  br i1 %147, label %148, label %160

148:                                              ; preds = %145
  br label %149

149:                                              ; preds = %149, %148
  %150 = load ptr, ptr %16, align 8
  %151 = load ptr, ptr %15, align 8
  call void @ZSTD_copy8(ptr noundef %150, ptr noundef %151)
  %152 = load ptr, ptr %16, align 8
  %153 = getelementptr inbounds i8, ptr %152, i64 8
  store ptr %153, ptr %16, align 8
  %154 = load ptr, ptr %15, align 8
  %155 = getelementptr inbounds i8, ptr %154, i64 8
  store ptr %155, ptr %15, align 8
  %156 = load ptr, ptr %16, align 8
  %157 = load ptr, ptr %17, align 8
  %158 = icmp ult ptr %156, %157
  br i1 %158, label %149, label %159, !llvm.loop !26

159:                                              ; preds = %149
  br label %188

160:                                              ; preds = %145, %128
  %161 = load ptr, ptr %16, align 8
  %162 = load ptr, ptr %15, align 8
  call void @ZSTD_copy16(ptr noundef %161, ptr noundef %162)
  %163 = load i64, ptr %12, align 8
  %164 = icmp sge i64 16, %163
  br i1 %164, label %165, label %166

165:                                              ; preds = %160
  br label %188

166:                                              ; preds = %160
  %167 = load ptr, ptr %16, align 8
  %168 = getelementptr inbounds i8, ptr %167, i64 16
  store ptr %168, ptr %16, align 8
  %169 = load ptr, ptr %15, align 8
  %170 = getelementptr inbounds i8, ptr %169, i64 16
  store ptr %170, ptr %15, align 8
  br label %171

171:                                              ; preds = %171, %166
  %172 = load ptr, ptr %16, align 8
  %173 = load ptr, ptr %15, align 8
  call void @ZSTD_copy16(ptr noundef %172, ptr noundef %173)
  %174 = load ptr, ptr %16, align 8
  %175 = getelementptr inbounds i8, ptr %174, i64 16
  store ptr %175, ptr %16, align 8
  %176 = load ptr, ptr %15, align 8
  %177 = getelementptr inbounds i8, ptr %176, i64 16
  store ptr %177, ptr %15, align 8
  %178 = load ptr, ptr %16, align 8
  %179 = load ptr, ptr %15, align 8
  call void @ZSTD_copy16(ptr noundef %178, ptr noundef %179)
  %180 = load ptr, ptr %16, align 8
  %181 = getelementptr inbounds i8, ptr %180, i64 16
  store ptr %181, ptr %16, align 8
  %182 = load ptr, ptr %15, align 8
  %183 = getelementptr inbounds i8, ptr %182, i64 16
  store ptr %183, ptr %15, align 8
  %184 = load ptr, ptr %16, align 8
  %185 = load ptr, ptr %17, align 8
  %186 = icmp ult ptr %184, %185
  br i1 %186, label %171, label %187, !llvm.loop !27

187:                                              ; preds = %171
  br label %188

188:                                              ; preds = %187, %165, %159
  br label %283

189:                                              ; preds = %124
  %190 = load ptr, ptr %26, align 8
  %191 = load ptr, ptr %27, align 8
  %192 = icmp ule ptr %190, %191
  br i1 %192, label %193, label %272

193:                                              ; preds = %189
  %194 = load ptr, ptr %26, align 8
  %195 = load ptr, ptr %28, align 8
  %196 = load ptr, ptr %27, align 8
  %197 = load ptr, ptr %26, align 8
  %198 = ptrtoint ptr %196 to i64
  %199 = ptrtoint ptr %197 to i64
  %200 = sub i64 %198, %199
  %201 = load i32, ptr %30, align 4
  store ptr %194, ptr %18, align 8
  store ptr %195, ptr %19, align 8
  store i64 %200, ptr %20, align 8
  store i32 %201, ptr %21, align 4
  %202 = load ptr, ptr %18, align 8
  %203 = load ptr, ptr %19, align 8
  %204 = ptrtoint ptr %202 to i64
  %205 = ptrtoint ptr %203 to i64
  %206 = sub i64 %204, %205
  store i64 %206, ptr %22, align 8
  %207 = load ptr, ptr %19, align 8
  store ptr %207, ptr %23, align 8
  %208 = load ptr, ptr %18, align 8
  store ptr %208, ptr %24, align 8
  %209 = load ptr, ptr %24, align 8
  %210 = load i64, ptr %20, align 8
  %211 = getelementptr inbounds i8, ptr %209, i64 %210
  store ptr %211, ptr %25, align 8
  %212 = load i32, ptr %21, align 4
  %213 = icmp eq i32 %212, 1
  br i1 %213, label %214, label %229

214:                                              ; preds = %193
  %215 = load i64, ptr %22, align 8
  %216 = icmp slt i64 %215, 16
  br i1 %216, label %217, label %229

217:                                              ; preds = %214
  br label %218

218:                                              ; preds = %218, %217
  %219 = load ptr, ptr %24, align 8
  %220 = load ptr, ptr %23, align 8
  call void @ZSTD_copy8(ptr noundef %219, ptr noundef %220)
  %221 = load ptr, ptr %24, align 8
  %222 = getelementptr inbounds i8, ptr %221, i64 8
  store ptr %222, ptr %24, align 8
  %223 = load ptr, ptr %23, align 8
  %224 = getelementptr inbounds i8, ptr %223, i64 8
  store ptr %224, ptr %23, align 8
  %225 = load ptr, ptr %24, align 8
  %226 = load ptr, ptr %25, align 8
  %227 = icmp ult ptr %225, %226
  br i1 %227, label %218, label %228, !llvm.loop !26

228:                                              ; preds = %218
  br label %257

229:                                              ; preds = %214, %193
  %230 = load ptr, ptr %24, align 8
  %231 = load ptr, ptr %23, align 8
  call void @ZSTD_copy16(ptr noundef %230, ptr noundef %231)
  %232 = load i64, ptr %20, align 8
  %233 = icmp sge i64 16, %232
  br i1 %233, label %234, label %235

234:                                              ; preds = %229
  br label %257

235:                                              ; preds = %229
  %236 = load ptr, ptr %24, align 8
  %237 = getelementptr inbounds i8, ptr %236, i64 16
  store ptr %237, ptr %24, align 8
  %238 = load ptr, ptr %23, align 8
  %239 = getelementptr inbounds i8, ptr %238, i64 16
  store ptr %239, ptr %23, align 8
  br label %240

240:                                              ; preds = %240, %235
  %241 = load ptr, ptr %24, align 8
  %242 = load ptr, ptr %23, align 8
  call void @ZSTD_copy16(ptr noundef %241, ptr noundef %242)
  %243 = load ptr, ptr %24, align 8
  %244 = getelementptr inbounds i8, ptr %243, i64 16
  store ptr %244, ptr %24, align 8
  %245 = load ptr, ptr %23, align 8
  %246 = getelementptr inbounds i8, ptr %245, i64 16
  store ptr %246, ptr %23, align 8
  %247 = load ptr, ptr %24, align 8
  %248 = load ptr, ptr %23, align 8
  call void @ZSTD_copy16(ptr noundef %247, ptr noundef %248)
  %249 = load ptr, ptr %24, align 8
  %250 = getelementptr inbounds i8, ptr %249, i64 16
  store ptr %250, ptr %24, align 8
  %251 = load ptr, ptr %23, align 8
  %252 = getelementptr inbounds i8, ptr %251, i64 16
  store ptr %252, ptr %23, align 8
  %253 = load ptr, ptr %24, align 8
  %254 = load ptr, ptr %25, align 8
  %255 = icmp ult ptr %253, %254
  br i1 %255, label %240, label %256, !llvm.loop !27

256:                                              ; preds = %240
  br label %257

257:                                              ; preds = %256, %234, %228
  %258 = load ptr, ptr %27, align 8
  %259 = load ptr, ptr %26, align 8
  %260 = ptrtoint ptr %258 to i64
  %261 = ptrtoint ptr %259 to i64
  %262 = sub i64 %260, %261
  %263 = load ptr, ptr %28, align 8
  %264 = getelementptr inbounds i8, ptr %263, i64 %262
  store ptr %264, ptr %28, align 8
  %265 = load ptr, ptr %27, align 8
  %266 = load ptr, ptr %26, align 8
  %267 = ptrtoint ptr %265 to i64
  %268 = ptrtoint ptr %266 to i64
  %269 = sub i64 %267, %268
  %270 = load ptr, ptr %26, align 8
  %271 = getelementptr inbounds i8, ptr %270, i64 %269
  store ptr %271, ptr %26, align 8
  br label %272

272:                                              ; preds = %257, %189
  br label %273

273:                                              ; preds = %277, %272
  %274 = load ptr, ptr %26, align 8
  %275 = load ptr, ptr %32, align 8
  %276 = icmp ult ptr %274, %275
  br i1 %276, label %277, label %283

277:                                              ; preds = %273
  %278 = load ptr, ptr %28, align 8
  %279 = getelementptr inbounds i8, ptr %278, i32 1
  store ptr %279, ptr %28, align 8
  %280 = load i8, ptr %278, align 1
  %281 = load ptr, ptr %26, align 8
  %282 = getelementptr inbounds i8, ptr %281, i32 1
  store ptr %282, ptr %26, align 8
  store i8 %280, ptr %281, align 1
  br label %273, !llvm.loop !34

283:                                              ; preds = %273, %188, %54
  ret void
}