; Function Attrs: nofree norecurse nosync nounwind memory(argmem: readwrite) uwtable
define internal fastcc void @ZSTD_safecopy(ptr noundef %0, ptr noundef %1, ptr noundef %2, i64 noundef %3, i32 noundef range(i32 0, 2) %4) unnamed_addr #12 {
  %6 = ptrtoint ptr %0 to i64
  %7 = ptrtoint ptr %2 to i64
  %8 = sub i64 %6, %7
  %9 = getelementptr inbounds i8, ptr %0, i64 %3
  %10 = icmp slt i64 %3, 8
  br i1 %10, label %.preheader, label %16

.preheader:                                       ; preds = %5
  %11 = icmp sgt i64 %3, 0
  br i1 %11, label %.lr.ph164, label %.loopexit

.lr.ph164:                                        ; preds = %.preheader, %.lr.ph164
  %.0137163 = phi ptr [ %14, %.lr.ph164 ], [ %0, %.preheader ]
  %.0139162 = phi ptr [ %12, %.lr.ph164 ], [ %2, %.preheader ]
  %12 = getelementptr inbounds nuw i8, ptr %.0139162, i64 1
  %13 = load i8, ptr %.0139162, align 1
  %14 = getelementptr inbounds nuw i8, ptr %.0137163, i64 1
  store i8 %13, ptr %.0137163, align 1
  %15 = icmp ult ptr %14, %9
  br i1 %15, label %.lr.ph164, label %.loopexit, !llvm.loop !61

16:                                               ; preds = %5
  %17 = icmp ne i32 %4, 0
  br i1 %17, label %18, label %46

18:                                               ; preds = %16
  %19 = icmp ult i64 %8, 8
  br i1 %19, label %20, label %41

20:                                               ; preds = %18
  %21 = getelementptr inbounds nuw [8 x i32], ptr @ZSTD_overlapCopy8.dec64table, i64 0, i64 %8
  %22 = load i32, ptr %21, align 4
  %23 = load i8, ptr %2, align 1
  store i8 %23, ptr %0, align 1
  %24 = getelementptr inbounds nuw i8, ptr %2, i64 1
  %25 = load i8, ptr %24, align 1
  %26 = getelementptr inbounds nuw i8, ptr %0, i64 1
  store i8 %25, ptr %26, align 1
  %27 = getelementptr inbounds nuw i8, ptr %2, i64 2
  %28 = load i8, ptr %27, align 1
  %29 = getelementptr inbounds nuw i8, ptr %0, i64 2
  store i8 %28, ptr %29, align 1
  %30 = getelementptr inbounds nuw i8, ptr %2, i64 3
  %31 = load i8, ptr %30, align 1
  %32 = getelementptr inbounds nuw i8, ptr %0, i64 3
  store i8 %31, ptr %32, align 1
  %33 = getelementptr inbounds nuw [8 x i32], ptr @ZSTD_overlapCopy8.dec32table, i64 0, i64 %8
  %34 = load i32, ptr %33, align 4
  %35 = zext i32 %34 to i64
  %36 = getelementptr inbounds nuw i8, ptr %2, i64 %35
  %37 = getelementptr inbounds nuw i8, ptr %0, i64 4
  %.val151 = load i32, ptr %36, align 1
  store i32 %.val151, ptr %37, align 1
  %38 = sext i32 %22 to i64
  %39 = sub nsw i64 0, %38
  %40 = getelementptr inbounds i8, ptr %36, i64 %39
  br label %42

41:                                               ; preds = %18
  %.val152 = load i64, ptr %2, align 1
  store i64 %.val152, ptr %0, align 1
  br label %42

42:                                               ; preds = %41, %20
  %.2141 = phi ptr [ %40, %20 ], [ %2, %41 ]
  %43 = getelementptr inbounds nuw i8, ptr %.2141, i64 8
  %44 = getelementptr inbounds nuw i8, ptr %0, i64 8
  %45 = add nsw i64 %3, -8
  br label %46

46:                                               ; preds = %42, %16
  %.1140 = phi ptr [ %43, %42 ], [ %2, %16 ]
  %.1138 = phi ptr [ %44, %42 ], [ %0, %16 ]
  %.0100 = phi i64 [ %45, %42 ], [ %3, %16 ]
  %.not = icmp ugt ptr %9, %1
  br i1 %.not, label %65, label %47

47:                                               ; preds = %46
  %48 = ptrtoint ptr %.1138 to i64
  %49 = ptrtoint ptr %.1140 to i64
  %50 = sub i64 %48, %49
  %51 = getelementptr inbounds nuw i8, ptr %.1138, i64 %.0100
  %52 = icmp slt i64 %50, 16
  %or.cond = select i1 %17, i1 %52, i1 false
  br i1 %or.cond, label %.preheader157, label %56

.preheader157:                                    ; preds = %47, %.preheader157
  %.096 = phi ptr [ %53, %.preheader157 ], [ %.1138, %47 ]
  %.0 = phi ptr [ %54, %.preheader157 ], [ %.1140, %47 ]
  %.0.val = load i64, ptr %.0, align 1
  store i64 %.0.val, ptr %.096, align 1
  %53 = getelementptr inbounds nuw i8, ptr %.096, i64 8
  %54 = getelementptr inbounds nuw i8, ptr %.0, i64 8
  %55 = icmp ult ptr %53, %51
  br i1 %55, label %.preheader157, label %.loopexit, !llvm.loop !29

56:                                               ; preds = %47
  %.1140.val150 = load <2 x i64>, ptr %.1140, align 1
  store <2 x i64> %.1140.val150, ptr %.1138, align 1
  %57 = icmp samesign ult i64 %.0100, 17
  br i1 %57, label %.loopexit, label %58

58:                                               ; preds = %56
  %59 = getelementptr inbounds nuw i8, ptr %.1138, i64 16
  br label %60

60:                                               ; preds = %60, %58
  %.197 = phi ptr [ %59, %58 ], [ %63, %60 ]
  %.1140.pn148 = phi ptr [ %.1140, %58 ], [ %62, %60 ]
  %.1 = getelementptr inbounds nuw i8, ptr %.1140.pn148, i64 16
  %.1.val = load <2 x i64>, ptr %.1, align 1
  store <2 x i64> %.1.val, ptr %.197, align 1
  %61 = getelementptr inbounds nuw i8, ptr %.197, i64 16
  %62 = getelementptr inbounds nuw i8, ptr %.1140.pn148, i64 32
  %.val149 = load <2 x i64>, ptr %62, align 1
  store <2 x i64> %.val149, ptr %61, align 1
  %63 = getelementptr inbounds nuw i8, ptr %.197, i64 32
  %64 = icmp ult ptr %63, %51
  br i1 %64, label %60, label %.loopexit, !llvm.loop !27

65:                                               ; preds = %46
  %.not147 = icmp ugt ptr %.1138, %1
  br i1 %.not147, label %87, label %66

66:                                               ; preds = %65
  %67 = ptrtoint ptr %1 to i64
  %68 = ptrtoint ptr %.1138 to i64
  %69 = sub i64 %67, %68
  %70 = ptrtoint ptr %.1140 to i64
  %71 = sub i64 %68, %70
  %72 = getelementptr inbounds i8, ptr %.1138, i64 %69
  %73 = icmp slt i64 %71, 16
  %or.cond3 = select i1 %17, i1 %73, i1 false
  br i1 %or.cond3, label %.preheader154, label %77

.preheader154:                                    ; preds = %66, %.preheader154
  %.0101 = phi ptr [ %74, %.preheader154 ], [ %.1138, %66 ]
  %.098 = phi ptr [ %75, %.preheader154 ], [ %.1140, %66 ]
  %.098.val = load i64, ptr %.098, align 1
  store i64 %.098.val, ptr %.0101, align 1
  %74 = getelementptr inbounds nuw i8, ptr %.0101, i64 8
  %75 = getelementptr inbounds nuw i8, ptr %.098, i64 8
  %76 = icmp ult ptr %74, %1
  br i1 %76, label %.preheader154, label %.loopexit155, !llvm.loop !29

77:                                               ; preds = %66
  %.1140.val = load <2 x i64>, ptr %.1140, align 1
  store <2 x i64> %.1140.val, ptr %.1138, align 1
  %78 = icmp slt i64 %69, 17
  br i1 %78, label %.loopexit155, label %79

79:                                               ; preds = %77
  %80 = getelementptr inbounds nuw i8, ptr %.1138, i64 16
  br label %81

81:                                               ; preds = %81, %79
  %.1102 = phi ptr [ %80, %79 ], [ %84, %81 ]
  %.1140.pn = phi ptr [ %.1140, %79 ], [ %83, %81 ]
  %.199 = getelementptr inbounds nuw i8, ptr %.1140.pn, i64 16
  %.199.val = load <2 x i64>, ptr %.199, align 1
  store <2 x i64> %.199.val, ptr %.1102, align 1
  %82 = getelementptr inbounds nuw i8, ptr %.1102, i64 16
  %83 = getelementptr inbounds nuw i8, ptr %.1140.pn, i64 32
  %.val = load <2 x i64>, ptr %83, align 1
  store <2 x i64> %.val, ptr %82, align 1
  %84 = getelementptr inbounds nuw i8, ptr %.1102, i64 32
  %85 = icmp ult ptr %84, %1
  br i1 %85, label %81, label %.loopexit155, !llvm.loop !27

.loopexit155:                                     ; preds = %81, %.preheader154, %77
  %86 = getelementptr inbounds i8, ptr %.1140, i64 %69
  br label %87

87:                                               ; preds = %.loopexit155, %65
  %.3142 = phi ptr [ %86, %.loopexit155 ], [ %.1140, %65 ]
  %.2 = phi ptr [ %72, %.loopexit155 ], [ %.1138, %65 ]
  %88 = icmp ult ptr %.2, %9
  br i1 %88, label %.lr.ph, label %.loopexit

.lr.ph:                                           ; preds = %87, %.lr.ph
  %.3161 = phi ptr [ %91, %.lr.ph ], [ %.2, %87 ]
  %.4160 = phi ptr [ %89, %.lr.ph ], [ %.3142, %87 ]
  %89 = getelementptr inbounds nuw i8, ptr %.4160, i64 1
  %90 = load i8, ptr %.4160, align 1
  %91 = getelementptr inbounds nuw i8, ptr %.3161, i64 1
  store i8 %90, ptr %.3161, align 1
  %92 = icmp ult ptr %91, %9
  br i1 %92, label %.lr.ph, label %.loopexit, !llvm.loop !62

.loopexit:                                        ; preds = %60, %.preheader157, %.lr.ph, %.lr.ph164, %87, %.preheader, %56
  ret void
}